target datalayout = "e-m:e-p270:32:32-p271:32:32-p272:64:64-i64:64-i128:128-f80:128-n8:16:32:64-S128"
target triple = "x86_64-pc-linux-gnu"

%struct.string_list = type { ptr, i64, i64, i8, ptr }
%struct.string_list_item = type { ptr, ptr }

; Function Attrs: nounwind uwtable
define dso_local void @unsorted_string_list_delete_item(ptr noundef %0, i32 noundef %1, i32 noundef %2) #0 {
  %4 = alloca ptr, align 8
  %5 = alloca i32, align 4
  %6 = alloca i32, align 4
  store ptr %0, ptr %4, align 8, !tbaa !4
  store i32 %1, ptr %5, align 4, !tbaa !11
  store i32 %2, ptr %6, align 4, !tbaa !11
  %7 = load ptr, ptr %4, align 8, !tbaa !4
  %8 = getelementptr inbounds nuw %struct.string_list, ptr %7, i32 0, i32 3
  %9 = load i8, ptr %8, align 8
  %10 = and i8 %9, 1
  %11 = zext i8 %10 to i32
  %12 = icmp ne i32 %11, 0
  br i1 %12, label %13, label %22

13:                                               ; preds = %3
  %14 = load ptr, ptr %4, align 8, !tbaa !4
  %15 = getelementptr inbounds nuw %struct.string_list, ptr %14, i32 0, i32 0
  %16 = load ptr, ptr %15, align 8, !tbaa !13
  %17 = load i32, ptr %5, align 4, !tbaa !11
  %18 = sext i32 %17 to i64
  %19 = getelementptr inbounds %struct.string_list_item, ptr %16, i64 %18
  %20 = getelementptr inbounds nuw %struct.string_list_item, ptr %19, i32 0, i32 0
  %21 = load ptr, ptr %20, align 8, !tbaa !19
  call void @free(ptr noundef %21) #9
  br label %22

22:                                               ; preds = %13, %3
  %23 = load i32, ptr %6, align 4, !tbaa !11
  %24 = icmp ne i32 %23, 0
  br i1 %24, label %25, label %34

25:                                               ; preds = %22
  %26 = load ptr, ptr %4, align 8, !tbaa !4
  %27 = getelementptr inbounds nuw %struct.string_list, ptr %26, i32 0, i32 0
  %28 = load ptr, ptr %27, align 8, !tbaa !13
  %29 = load i32, ptr %5, align 4, !tbaa !11
  %30 = sext i32 %29 to i64
  %31 = getelementptr inbounds %struct.string_list_item, ptr %28, i64 %30
  %32 = getelementptr inbounds nuw %struct.string_list_item, ptr %31, i32 0, i32 1
  %33 = load ptr, ptr %32, align 8, !tbaa !21
  call void @free(ptr noundef %33) #9
  br label %34

34:                                               ; preds = %25, %22
  %35 = load ptr, ptr %4, align 8, !tbaa !4
  %36 = getelementptr inbounds nuw %struct.string_list, ptr %35, i32 0, i32 0
  %37 = load ptr, ptr %36, align 8, !tbaa !13
  %38 = load i32, ptr %5, align 4, !tbaa !11
  %39 = sext i32 %38 to i64
  %40 = getelementptr inbounds %struct.string_list_item, ptr %37, i64 %39
  %41 = load ptr, ptr %4, align 8, !tbaa !4
  %42 = getelementptr inbounds nuw %struct.string_list, ptr %41, i32 0, i32 0
  %43 = load ptr, ptr %42, align 8, !tbaa !13
  %44 = load ptr, ptr %4, align 8, !tbaa !4
  %45 = getelementptr inbounds nuw %struct.string_list, ptr %44, i32 0, i32 1
  %46 = load i64, ptr %45, align 8, !tbaa !17
  %47 = sub i64 %46, 1
  %48 = getelementptr inbounds nuw %struct.string_list_item, ptr %43, i64 %47
  call void @llvm.memcpy.p0.p0.i64(ptr align 8 %40, ptr align 8 %48, i64 16, i1 false), !tbaa.struct !29
  %49 = load ptr, ptr %4, align 8, !tbaa !4
  %50 = getelementptr inbounds nuw %struct.string_list, ptr %49, i32 0, i32 1
  %51 = load i64, ptr %50, align 8, !tbaa !17
  %52 = add i64 %51, -1
  store i64 %52, ptr %50, align 8, !tbaa !17
  ret void
}