; Function Attrs: mustprogress nounwind willreturn uwtable
define dso_local void @unsorted_string_list_delete_item(ptr noundef captures(none) %0, i32 noundef %1, i32 noundef %2) local_unnamed_addr #9 {
  %4 = getelementptr inbounds nuw i8, ptr %0, i64 24
  %5 = load i8, ptr %4, align 8
  %6 = and i8 %5, 1
  %.not = icmp eq i8 %6, 0
  br i1 %.not, label %12, label %7

7:                                                ; preds = %3
  %8 = load ptr, ptr %0, align 8, !tbaa !13
  %9 = sext i32 %1 to i64
  %10 = getelementptr inbounds %struct.string_list_item, ptr %8, i64 %9
  %11 = load ptr, ptr %10, align 8, !tbaa !14
  tail call void @free(ptr noundef %11) #11
  br label %12

12:                                               ; preds = %7, %3
  %.not10 = icmp eq i32 %2, 0
  br i1 %.not10, label %._crit_edge, label %13

._crit_edge:                                      ; preds = %12
  %.pre = sext i32 %1 to i64
  br label %18

13:                                               ; preds = %12
  %14 = load ptr, ptr %0, align 8, !tbaa !13
  %15 = sext i32 %1 to i64
  %16 = getelementptr inbounds %struct.string_list_item, ptr %14, i64 %15, i32 1
  %17 = load ptr, ptr %16, align 8, !tbaa !20
  tail call void @free(ptr noundef %17) #11
  br label %18

18:                                               ; preds = %._crit_edge, %13
  %.pre-phi = phi i64 [ %.pre, %._crit_edge ], [ %15, %13 ]
  %19 = load ptr, ptr %0, align 8, !tbaa !13
  %20 = getelementptr inbounds %struct.string_list_item, ptr %19, i64 %.pre-phi
  %21 = getelementptr inbounds nuw i8, ptr %0, i64 8
  %22 = load i64, ptr %21, align 8, !tbaa !4
  %23 = getelementptr %struct.string_list_item, ptr %19, i64 %22
  %24 = getelementptr i8, ptr %23, i64 -16
  tail call void @llvm.memcpy.p0.p0.i64(ptr noundef nonnull align 8 dereferenceable(16) %20, ptr noundef nonnull align 8 dereferenceable(16) %24, i64 16, i1 false), !tbaa.struct !21
  %25 = load i64, ptr %21, align 8, !tbaa !4
  %26 = add i64 %25, -1
  store i64 %26, ptr %21, align 8, !tbaa !4
  ret void
}